target datalayout = "e-m:e-p270:32:32-p271:32:32-p272:64:64-i64:64-i128:128-f80:128-n8:16:32:64-S128"
target triple = "x86_64-pc-linux-gnu"

%"class.testing::internal::TestEventRepeater" = type { %"class.testing::TestEventListener", i8, %"class.std::vector.198" }
%"class.testing::TestEventListener" = type { ptr }
%"class.std::vector.198" = type { %"struct.std::_Vector_base.199" }
%"struct.std::_Vector_base.199" = type { %"struct.std::_Vector_base<testing::TestEventListener *, std::allocator<testing::TestEventListener *>>::_Vector_impl" }
%"struct.std::_Vector_base<testing::TestEventListener *, std::allocator<testing::TestEventListener *>>::_Vector_impl" = type { %"struct.std::_Vector_base<testing::TestEventListener *, std::allocator<testing::TestEventListener *>>::_Vector_impl_data" }
%"struct.std::_Vector_base<testing::TestEventListener *, std::allocator<testing::TestEventListener *>>::_Vector_impl_data" = type { ptr, ptr, ptr }

; Function Attrs: mustprogress nounwind uwtable
define linkonce_odr noundef nonnull align 8 dereferenceable(8) ptr @_ZNSt6vectorIPN7testing17TestEventListenerESaIS2_EEixEm(ptr noundef nonnull align 8 dereferenceable(24) %0, i64 noundef %1) #7 comdat align 2 {
  %3 = alloca ptr, align 8
  %4 = alloca i64, align 8
  store ptr %0, ptr %3, align 8, !tbaa !741
  store i64 %1, ptr %4, align 8, !tbaa !181
  %5 = load ptr, ptr %3, align 8
  %6 = getelementptr inbounds nuw %"struct.std::_Vector_base.199", ptr %5, i32 0, i32 0
  %7 = getelementptr inbounds nuw %"struct.std::_Vector_base<testing::TestEventListener *, std::allocator<testing::TestEventListener *>>::_Vector_impl_data", ptr %6, i32 0, i32 0
  %8 = load ptr, ptr %7, align 8, !tbaa !743
  %9 = load i64, ptr %4, align 8, !tbaa !181
  %10 = getelementptr inbounds nuw ptr, ptr %8, i64 %9
  ret ptr %10
}

; Function Attrs: mustprogress nounwind uwtable
define linkonce_odr noundef i64 @_ZNKSt6vectorIPN7testing17TestEventListenerESaIS2_EE4sizeEv(ptr noundef nonnull align 8 dereferenceable(24) %0) #7 comdat align 2 {
  %2 = alloca ptr, align 8
  store ptr %0, ptr %2, align 8, !tbaa !741
  %3 = load ptr, ptr %2, align 8
  %4 = getelementptr inbounds nuw %"struct.std::_Vector_base.199", ptr %3, i32 0, i32 0
  %5 = getelementptr inbounds nuw %"struct.std::_Vector_base<testing::TestEventListener *, std::allocator<testing::TestEventListener *>>::_Vector_impl_data", ptr %4, i32 0, i32 1
  %6 = load ptr, ptr %5, align 8, !tbaa !746
  %7 = getelementptr inbounds nuw %"struct.std::_Vector_base.199", ptr %3, i32 0, i32 0
  %8 = getelementptr inbounds nuw %"struct.std::_Vector_base<testing::TestEventListener *, std::allocator<testing::TestEventListener *>>::_Vector_impl_data", ptr %7, i32 0, i32 0
  %9 = load ptr, ptr %8, align 8, !tbaa !743
  %10 = ptrtoint ptr %6 to i64
  %11 = ptrtoint ptr %9 to i64
  %12 = sub i64 %10, %11
  %13 = sdiv exact i64 %12, 8
  ret i64 %13
}

; Function Attrs: mustprogress uwtable
define void @_ZN7testing8internal17TestEventRepeater18OnTestIterationEndERKNS_8UnitTestEi(ptr noundef nonnull align 8 dereferenceable(40) %0, ptr noundef nonnull align 8 dereferenceable(72) %1, i32 noundef %2) unnamed_addr #4 align 2 {
  %4 = alloca ptr, align 8
  %5 = alloca ptr, align 8
  %6 = alloca i32, align 4
  %7 = alloca i64, align 8
  store ptr %0, ptr %4, align 8, !tbaa !740
  store ptr %1, ptr %5, align 8, !tbaa !437
  store i32 %2, ptr %6, align 4, !tbaa !39
  %8 = load ptr, ptr %4, align 8
  %9 = getelementptr inbounds nuw %"class.testing::internal::TestEventRepeater", ptr %8, i32 0, i32 1
  %10 = load i8, ptr %9, align 8, !tbaa !758, !range !18, !noundef !19
  %11 = trunc i8 %10 to i1
  br i1 %11, label %12, label %34

12:                                               ; preds = %3
  call void @llvm.lifetime.start.p0(i64 8, ptr %7) #3
  %13 = getelementptr inbounds nuw %"class.testing::internal::TestEventRepeater", ptr %8, i32 0, i32 2
  %14 = call noundef i64 @_ZNKSt6vectorIPN7testing17TestEventListenerESaIS2_EE4sizeEv(ptr noundef nonnull align 8 dereferenceable(24) %13) #3
  store i64 %14, ptr %7, align 8, !tbaa !181
  br label %15

15:                                               ; preds = %30, %12
  %16 = load i64, ptr %7, align 8, !tbaa !181
  %17 = icmp ugt i64 %16, 0
  br i1 %17, label %19, label %18

18:                                               ; preds = %15
  call void @llvm.lifetime.end.p0(i64 8, ptr %7) #3
  br label %33

19:                                               ; preds = %15
  %20 = getelementptr inbounds nuw %"class.testing::internal::TestEventRepeater", ptr %8, i32 0, i32 2
  %21 = load i64, ptr %7, align 8, !tbaa !181
  %22 = sub i64 %21, 1
  %23 = call noundef nonnull align 8 dereferenceable(8) ptr @_ZNSt6vectorIPN7testing17TestEventListenerESaIS2_EEixEm(ptr noundef nonnull align 8 dereferenceable(24) %20, i64 noundef %22) #3
  %24 = load ptr, ptr %23, align 8, !tbaa !705
  %25 = load ptr, ptr %5, align 8, !tbaa !437
  %26 = load i32, ptr %6, align 4, !tbaa !39
  %27 = load ptr, ptr %24, align 8, !tbaa !49
  %28 = getelementptr inbounds ptr, ptr %27, i64 16
  %29 = load ptr, ptr %28, align 8
  call void %29(ptr noundef nonnull align 8 dereferenceable(8) %24, ptr noundef nonnull align 8 dereferenceable(72) %25, i32 noundef %26)
  br label %30

30:                                               ; preds = %19
  %31 = load i64, ptr %7, align 8, !tbaa !181
  %32 = add i64 %31, -1
  store i64 %32, ptr %7, align 8, !tbaa !181
  br label %15, !llvm.loop !779

33:                                               ; preds = %18
  br label %34

34:                                               ; preds = %33, %3
  ret void
}